target datalayout = "e-m:e-p270:32:32-p271:32:32-p272:64:64-i64:64-i128:128-f80:128-n8:16:32:64-S128"
target triple = "x86_64-pc-linux-gnu"

%struct.ProcSignalHeader = type { %struct.pg_atomic_uint64, [0 x %struct.ProcSignalSlot] }
%struct.pg_atomic_uint64 = type { i64 }
%struct.ProcSignalSlot = type { %struct.pg_atomic_uint32, i8, i32, [14 x i32], i8, %struct.pg_atomic_uint64, %struct.pg_atomic_uint32, %struct.ConditionVariable }
%struct.pg_atomic_uint32 = type { i32 }
%struct.ConditionVariable = type { i8, %struct.proclist_head }
%struct.proclist_head = type { i32, i32 }

@MaxBackends = external global i32, align 4
@ProcSignal = internal global ptr null, align 8
@.str.2 = private unnamed_addr constant [13 x i8] c"procsignal.c\00", align 1
@__func__.SendCancelRequest = private unnamed_addr constant [18 x i8] c"SendCancelRequest\00", align 1
@.str.8 = private unnamed_addr constant [56 x i8] c"processing cancel request: sending SIGINT to process %d\00", align 1
@.str.9 = private unnamed_addr constant [43 x i8] c"wrong key in cancel request for process %d\00", align 1
@.str.10 = private unnamed_addr constant [51 x i8] c"PID %d in cancel request did not match any process\00", align 1

; Function Attrs: inlinehint nounwind uwtable
define internal i32 @pg_atomic_read_u32_impl(ptr noundef %0) #3 {
  %2 = alloca ptr, align 8
  store ptr %0, ptr %2, align 8
  %3 = load ptr, ptr %2, align 8
  %4 = getelementptr inbounds nuw %struct.pg_atomic_uint32, ptr %3, i32 0, i32 0
  %5 = load volatile i32, ptr %4, align 4
  ret i32 %5
}

; Function Attrs: inlinehint nounwind uwtable
define internal i32 @tas(ptr noundef %0) #3 {
  %2 = alloca ptr, align 8
  %3 = alloca i8, align 1
  store ptr %0, ptr %2, align 8
  call void @llvm.lifetime.start.p0(i64 1, ptr %3) #11
  store i8 1, ptr %3, align 1
  %4 = load i8, ptr %3, align 1
  %5 = load ptr, ptr %2, align 8
  %6 = call i8 asm sideeffect "\09lock\09\09\09\0A\09xchgb\09$0,$1\09\0A", "=q,=*m,0,*m,~{memory},~{cc},~{dirflag},~{fpsr},~{flags}"(ptr elementtype(i8) %5, i8 %4, ptr elementtype(i8) %5) #11, !srcloc !13
  store i8 %6, ptr %3, align 1
  %7 = load i8, ptr %3, align 1
  %8 = zext i8 %7 to i32
  call void @llvm.lifetime.end.p0(i64 1, ptr %3) #11
  ret i32 %8
}

; Function Attrs: inlinehint nounwind uwtable
define internal i32 @pg_atomic_read_u32(ptr noundef %0) #3 {
  %2 = alloca ptr, align 8
  store ptr %0, ptr %2, align 8
  %3 = load ptr, ptr %2, align 8
  %4 = call i32 @pg_atomic_read_u32_impl(ptr noundef %3)
  ret i32 %4
}

; Function Attrs: nounwind uwtable
define dso_local void @SendCancelRequest(i32 noundef %0, i32 noundef %1) #0 {
  %3 = alloca i32, align 4
  %4 = alloca i32, align 4
  %5 = alloca i32, align 4
  %6 = alloca i32, align 4
  %7 = alloca ptr, align 8
  %8 = alloca i8, align 1
  store i32 %0, ptr %3, align 4
  store i32 %1, ptr %4, align 4
  call void @llvm.lifetime.start.p0(i64 4, ptr %5) #11
  store i32 0, ptr %5, align 4
  br label %9

9:                                                ; preds = %100, %2
  %10 = load i32, ptr %5, align 4
  %11 = load i32, ptr @MaxBackends, align 4
  %12 = add i32 %11, 6
  %13 = icmp slt i32 %10, %12
  br i1 %13, label %15, label %14

14:                                               ; preds = %9
  store i32 2, ptr %6, align 4
  br label %103

15:                                               ; preds = %9
  call void @llvm.lifetime.start.p0(i64 8, ptr %7) #11
  %16 = load ptr, ptr @ProcSignal, align 8
  %17 = getelementptr inbounds nuw %struct.ProcSignalHeader, ptr %16, i32 0, i32 1
  %18 = load i32, ptr %5, align 4
  %19 = sext i32 %18 to i64
  %20 = getelementptr inbounds [0 x %struct.ProcSignalSlot], ptr %17, i64 0, i64 %19
  store ptr %20, ptr %7, align 8
  call void @llvm.lifetime.start.p0(i64 1, ptr %8) #11
  %21 = load ptr, ptr %7, align 8
  %22 = getelementptr inbounds nuw %struct.ProcSignalSlot, ptr %21, i32 0, i32 0
  %23 = call i32 @pg_atomic_read_u32(ptr noundef %22)
  %24 = load i32, ptr %3, align 4
  %25 = icmp ne i32 %23, %24
  br i1 %25, label %26, label %27

26:                                               ; preds = %15
  store i32 4, ptr %6, align 4
  br label %98

27:                                               ; preds = %15
  %28 = load ptr, ptr %7, align 8
  %29 = getelementptr inbounds nuw %struct.ProcSignalSlot, ptr %28, i32 0, i32 4
  %30 = call i32 @tas(ptr noundef %29)
  %31 = icmp ne i32 %30, 0
  br i1 %31, label %32, label %36

32:                                               ; preds = %27
  %33 = load ptr, ptr %7, align 8
  %34 = getelementptr inbounds nuw %struct.ProcSignalSlot, ptr %33, i32 0, i32 4
  %35 = call i32 @s_lock(ptr noundef %34, ptr noundef @.str.2, i32 noundef 747, ptr noundef @__func__.SendCancelRequest)
  br label %37

36:                                               ; preds = %27
  br label %37

37:                                               ; preds = %36, %32
  %38 = load ptr, ptr %7, align 8
  %39 = getelementptr inbounds nuw %struct.ProcSignalSlot, ptr %38, i32 0, i32 0
  %40 = call i32 @pg_atomic_read_u32(ptr noundef %39)
  %41 = load i32, ptr %3, align 4
  %42 = icmp ne i32 %40, %41
  br i1 %42, label %43, label %49

43:                                               ; preds = %37
  br label %44

44:                                               ; preds = %43
  call void asm sideeffect "", "~{memory},~{dirflag},~{fpsr},~{flags}"() #11, !srcloc !29
  %45 = load ptr, ptr %7, align 8
  %46 = getelementptr inbounds nuw %struct.ProcSignalSlot, ptr %45, i32 0, i32 4
  store i8 0, ptr %46, align 4
  br label %47

47:                                               ; preds = %44
  br label %48

48:                                               ; preds = %47
  store i32 4, ptr %6, align 4
  br label %98

49:                                               ; preds = %37
  %50 = load ptr, ptr %7, align 8
  %51 = getelementptr inbounds nuw %struct.ProcSignalSlot, ptr %50, i32 0, i32 1
  %52 = load i8, ptr %51, align 4, !range !4, !noundef !5
  %53 = trunc i8 %52 to i1
  br i1 %53, label %54, label %60

54:                                               ; preds = %49
  %55 = load ptr, ptr %7, align 8
  %56 = getelementptr inbounds nuw %struct.ProcSignalSlot, ptr %55, i32 0, i32 2
  %57 = load i32, ptr %56, align 8
  %58 = load i32, ptr %4, align 4
  %59 = icmp eq i32 %57, %58
  br label %60

60:                                               ; preds = %54, %49
  %61 = phi i1 [ false, %49 ], [ %59, %54 ]
  %62 = zext i1 %61 to i8
  store i8 %62, ptr %8, align 1
  br label %63

63:                                               ; preds = %60
  call void asm sideeffect "", "~{memory},~{dirflag},~{fpsr},~{flags}"() #11, !srcloc !30
  %64 = load ptr, ptr %7, align 8
  %65 = getelementptr inbounds nuw %struct.ProcSignalSlot, ptr %64, i32 0, i32 4
  store i8 0, ptr %65, align 4
  br label %66

66:                                               ; preds = %63
  br label %67

67:                                               ; preds = %66
  %68 = load i8, ptr %8, align 1, !range !4, !noundef !5
  %69 = trunc i8 %68 to i1
  br i1 %69, label %70, label %85

70:                                               ; preds = %67
  br label %71

71:                                               ; preds = %70
  br i1 false, label %72, label %74

72:                                               ; preds = %71
  %73 = call zeroext i1 @errstart_cold(i32 noundef 13, ptr noundef null) #12
  br i1 %73, label %76, label %79

74:                                               ; preds = %71
  %75 = call zeroext i1 @errstart(i32 noundef 13, ptr noundef null)
  br i1 %75, label %76, label %79

76:                                               ; preds = %74, %72
  %77 = load i32, ptr %3, align 4
  %78 = call i32 (ptr, ...) @errmsg_internal(ptr noundef @.str.8, i32 noundef %77)
  call void @errfinish(ptr noundef @.str.2, i32 noundef 764, ptr noundef @__func__.SendCancelRequest)
  br label %79

79:                                               ; preds = %76, %74, %72
  br label %80

80:                                               ; preds = %79
  br label %81

81:                                               ; preds = %80
  %82 = load i32, ptr %3, align 4
  %83 = sub i32 0, %82
  %84 = call i32 @kill(i32 noundef %83, i32 noundef 2) #11
  br label %97

85:                                               ; preds = %67
  br label %86

86:                                               ; preds = %85
  br i1 false, label %87, label %89

87:                                               ; preds = %86
  %88 = call zeroext i1 @errstart_cold(i32 noundef 15, ptr noundef null) #12
  br i1 %88, label %91, label %94

89:                                               ; preds = %86
  %90 = call zeroext i1 @errstart(i32 noundef 15, ptr noundef null)
  br i1 %90, label %91, label %94

91:                                               ; preds = %89, %87
  %92 = load i32, ptr %3, align 4
  %93 = call i32 (ptr, ...) @errmsg(ptr noundef @.str.9, i32 noundef %92)
  call void @errfinish(ptr noundef @.str.2, i32 noundef 781, ptr noundef @__func__.SendCancelRequest)
  br label %94

94:                                               ; preds = %91, %89, %87
  br label %95

95:                                               ; preds = %94
  br label %96

96:                                               ; preds = %95
  br label %97

97:                                               ; preds = %96, %81
  store i32 1, ptr %6, align 4
  br label %98

98:                                               ; preds = %97, %48, %26
  call void @llvm.lifetime.end.p0(i64 1, ptr %8) #11
  call void @llvm.lifetime.end.p0(i64 8, ptr %7) #11
  %99 = load i32, ptr %6, align 4
  switch i32 %99, label %103 [
    i32 4, label %100
  ]

100:                                              ; preds = %98
  %101 = load i32, ptr %5, align 4
  %102 = add i32 %101, 1
  store i32 %102, ptr %5, align 4
  br label %9, !llvm.loop !31

103:                                              ; preds = %98, %14
  call void @llvm.lifetime.end.p0(i64 4, ptr %5) #11
  %104 = load i32, ptr %6, align 4
  switch i32 %104, label %116 [
    i32 2, label %105
    i32 1, label %115
  ]

105:                                              ; preds = %103
  br label %106

106:                                              ; preds = %105
  br i1 false, label %107, label %109

107:                                              ; preds = %106
  %108 = call zeroext i1 @errstart_cold(i32 noundef 15, ptr noundef null) #12
  br i1 %108, label %111, label %114

109:                                              ; preds = %106
  %110 = call zeroext i1 @errstart(i32 noundef 15, ptr noundef null)
  br i1 %110, label %111, label %114

111:                                              ; preds = %109, %107
  %112 = load i32, ptr %3, align 4
  %113 = call i32 (ptr, ...) @errmsg(ptr noundef @.str.10, i32 noundef %112)
  call void @errfinish(ptr noundef @.str.2, i32 noundef 790, ptr noundef @__func__.SendCancelRequest)
  br label %114

114:                                              ; preds = %111, %109, %107
  br label %115

115:                                              ; preds = %103, %114
  ret void

116:                                              ; preds = %103
  unreachable
}