; Function Attrs: nounwind uwtable
define dso_local void @SendCancelRequest(i32 noundef %0, i32 noundef %1) local_unnamed_addr #0 {
  %3 = load i32, ptr @MaxBackends, align 4
  %4 = add i32 %3, 6
  %5 = icmp sgt i32 %4, 0
  br i1 %5, label %.lr.ph.preheader, label %._crit_edge

.lr.ph.preheader:                                 ; preds = %2
  %.pre35 = load ptr, ptr @ProcSignal, align 8
  br label %.lr.ph

.lr.ph:                                           ; preds = %.lr.ph.preheader, %38
  %6 = phi i32 [ %3, %.lr.ph.preheader ], [ %39, %38 ]
  %7 = phi ptr [ %.pre35, %.lr.ph.preheader ], [ %40, %38 ]
  %indvars.iv = phi i64 [ 0, %.lr.ph.preheader ], [ %indvars.iv.next, %38 ]
  %8 = getelementptr inbounds nuw i8, ptr %7, i64 8
  %9 = getelementptr inbounds nuw [0 x %struct.ProcSignalSlot], ptr %8, i64 0, i64 %indvars.iv
  %10 = load volatile i32, ptr %9, align 4
  %.not = icmp eq i32 %10, %0
  br i1 %.not, label %11, label %38

11:                                               ; preds = %.lr.ph
  %12 = getelementptr inbounds nuw i8, ptr %9, i64 68
  %13 = tail call i8 asm sideeffect "\09lock\09\09\09\0A\09xchgb\09$0,$1\09\0A", "=q,=*m,0,*m,~{memory},~{cc},~{dirflag},~{fpsr},~{flags}"(ptr nonnull elementtype(i8) %12, i8 1, ptr nonnull elementtype(i8) %12) #11, !srcloc !9
  %.not22 = icmp eq i8 %13, 0
  br i1 %.not22, label %16, label %14

14:                                               ; preds = %11
  %15 = tail call i32 @s_lock(ptr noundef nonnull %12, ptr noundef nonnull @.str.2, i32 noundef 747, ptr noundef nonnull @__func__.SendCancelRequest) #11
  br label %16

16:                                               ; preds = %11, %14
  %17 = load volatile i32, ptr %9, align 4
  %.not23 = icmp eq i32 %17, %0
  br i1 %.not23, label %19, label %18

18:                                               ; preds = %16
  tail call void asm sideeffect "", "~{memory},~{dirflag},~{fpsr},~{flags}"() #11, !srcloc !28
  store i8 0, ptr %12, align 4
  %.pre = load ptr, ptr @ProcSignal, align 8
  %.pre36 = load i32, ptr @MaxBackends, align 4
  br label %38

19:                                               ; preds = %16
  %20 = getelementptr inbounds nuw i8, ptr %9, i64 4
  %21 = load i8, ptr %20, align 4, !range !4, !noundef !5
  %22 = trunc nuw i8 %21 to i1
  br i1 %22, label %23, label %.critedge

23:                                               ; preds = %19
  %24 = getelementptr inbounds nuw i8, ptr %9, i64 8
  %25 = load i32, ptr %24, align 8
  %26 = icmp eq i32 %25, %1
  tail call void asm sideeffect "", "~{memory},~{dirflag},~{fpsr},~{flags}"() #11, !srcloc !29
  store i8 0, ptr %12, align 4
  br i1 %26, label %27, label %34

27:                                               ; preds = %23
  %28 = tail call zeroext i1 @errstart(i32 noundef 13, ptr noundef null) #11
  br i1 %28, label %29, label %31

29:                                               ; preds = %27
  %30 = tail call i32 (ptr, ...) @errmsg_internal(ptr noundef nonnull @.str.8, i32 noundef %0) #11
  tail call void @errfinish(ptr noundef nonnull @.str.2, i32 noundef 764, ptr noundef nonnull @__func__.SendCancelRequest) #11
  br label %31

31:                                               ; preds = %29, %27
  %32 = sub i32 0, %0
  %33 = tail call i32 @kill(i32 noundef %32, i32 noundef 2) #11
  br label %47

.critedge:                                        ; preds = %19
  tail call void asm sideeffect "", "~{memory},~{dirflag},~{fpsr},~{flags}"() #11, !srcloc !29
  store i8 0, ptr %12, align 4
  br label %34

34:                                               ; preds = %.critedge, %23
  %35 = tail call zeroext i1 @errstart(i32 noundef 15, ptr noundef null) #11
  br i1 %35, label %36, label %47

36:                                               ; preds = %34
  %37 = tail call i32 (ptr, ...) @errmsg(ptr noundef nonnull @.str.9, i32 noundef %0) #11
  tail call void @errfinish(ptr noundef nonnull @.str.2, i32 noundef 781, ptr noundef nonnull @__func__.SendCancelRequest) #11
  br label %47

38:                                               ; preds = %18, %.lr.ph
  %39 = phi i32 [ %.pre36, %18 ], [ %6, %.lr.ph ]
  %40 = phi ptr [ %.pre, %18 ], [ %7, %.lr.ph ]
  %indvars.iv.next = add nuw nsw i64 %indvars.iv, 1
  %41 = add i32 %39, 6
  %42 = sext i32 %41 to i64
  %43 = icmp slt i64 %indvars.iv.next, %42
  br i1 %43, label %.lr.ph, label %._crit_edge, !llvm.loop !30

._crit_edge:                                      ; preds = %38, %2
  %44 = tail call zeroext i1 @errstart(i32 noundef 15, ptr noundef null) #11
  br i1 %44, label %45, label %47

45:                                               ; preds = %._crit_edge
  %46 = tail call i32 (ptr, ...) @errmsg(ptr noundef nonnull @.str.10, i32 noundef %0) #11
  tail call void @errfinish(ptr noundef nonnull @.str.2, i32 noundef 790, ptr noundef nonnull @__func__.SendCancelRequest) #11
  br label %47

47:                                               ; preds = %31, %36, %34, %._crit_edge, %45
  ret void
}